target datalayout = "e-m:e-p270:32:32-p271:32:32-p272:64:64-i64:64-i128:128-f80:128-n8:16:32:64-S128"
target triple = "x86_64-pc-linux-gnu"

%struct.AVFormatContext = type { ptr, ptr, ptr, ptr, ptr, i32, i32, ptr, i32, ptr, i32, ptr, ptr, i64, i64, i64, i32, i32, i32, i64, i64, ptr, i32, i32, ptr, i32, i32, i32, i32, ptr, i64, i32, i32, %struct.AVIOInterruptCB, i32, i32, i32, i32, i64, i32, i32, i32, i32, i32, i32, i32, i32, i32, i32, i32, i32, i64, i32, i32, i32, i32, i32, ptr, ptr, ptr, ptr, i32, ptr, ptr, ptr, ptr, i32, ptr, ptr, i64, ptr, ptr, ptr, i64 }
%struct.AVIOInterruptCB = type { ptr, ptr }
%struct.AVPacket = type { ptr, i64, i64, ptr, i32, i32, i32, ptr, i32, i64, i64, ptr, ptr, %struct.AVRational }
%struct.AVRational = type { i32, i32 }
%struct.IVFEncContext = type { i32, i64, i64 }

; Function Attrs: nounwind uwtable
define internal i32 @ivf_write_packet(ptr noundef %0, ptr noundef %1) #0 {
  %3 = alloca ptr, align 8
  %4 = alloca ptr, align 8
  %5 = alloca ptr, align 8
  %6 = alloca ptr, align 8
  store ptr %0, ptr %3, align 8, !tbaa !4
  store ptr %1, ptr %4, align 8, !tbaa !46
  call void @llvm.lifetime.start.p0(i64 8, ptr %5) #4
  %7 = load ptr, ptr %3, align 8, !tbaa !4
  %8 = getelementptr inbounds nuw %struct.AVFormatContext, ptr %7, i32 0, i32 4
  %9 = load ptr, ptr %8, align 8, !tbaa !36
  store ptr %9, ptr %5, align 8, !tbaa !37
  call void @llvm.lifetime.start.p0(i64 8, ptr %6) #4
  %10 = load ptr, ptr %3, align 8, !tbaa !4
  %11 = getelementptr inbounds nuw %struct.AVFormatContext, ptr %10, i32 0, i32 3
  %12 = load ptr, ptr %11, align 8, !tbaa !48
  store ptr %12, ptr %6, align 8, !tbaa !49
  %13 = load ptr, ptr %5, align 8, !tbaa !37
  %14 = load ptr, ptr %4, align 8, !tbaa !46
  %15 = getelementptr inbounds nuw %struct.AVPacket, ptr %14, i32 0, i32 4
  %16 = load i32, ptr %15, align 8, !tbaa !51
  call void @avio_wl32(ptr noundef %13, i32 noundef %16)
  %17 = load ptr, ptr %5, align 8, !tbaa !37
  %18 = load ptr, ptr %4, align 8, !tbaa !46
  %19 = getelementptr inbounds nuw %struct.AVPacket, ptr %18, i32 0, i32 1
  %20 = load i64, ptr %19, align 8, !tbaa !52
  call void @avio_wl64(ptr noundef %17, i64 noundef %20)
  %21 = load ptr, ptr %5, align 8, !tbaa !37
  %22 = load ptr, ptr %4, align 8, !tbaa !46
  %23 = getelementptr inbounds nuw %struct.AVPacket, ptr %22, i32 0, i32 3
  %24 = load ptr, ptr %23, align 8, !tbaa !53
  %25 = load ptr, ptr %4, align 8, !tbaa !46
  %26 = getelementptr inbounds nuw %struct.AVPacket, ptr %25, i32 0, i32 4
  %27 = load i32, ptr %26, align 8, !tbaa !51
  call void @avio_write(ptr noundef %21, ptr noundef %24, i32 noundef %27)
  %28 = load ptr, ptr %4, align 8, !tbaa !46
  %29 = getelementptr inbounds nuw %struct.AVPacket, ptr %28, i32 0, i32 9
  %30 = load i64, ptr %29, align 8, !tbaa !54
  %31 = load ptr, ptr %6, align 8, !tbaa !49
  %32 = getelementptr inbounds nuw %struct.IVFEncContext, ptr %31, i32 0, i32 2
  store i64 %30, ptr %32, align 8, !tbaa !55
  %33 = load ptr, ptr %6, align 8, !tbaa !49
  %34 = getelementptr inbounds nuw %struct.IVFEncContext, ptr %33, i32 0, i32 0
  %35 = load i32, ptr %34, align 8, !tbaa !57
  %36 = add i32 %35, 1
  store i32 %36, ptr %34, align 8, !tbaa !57
  %37 = load ptr, ptr %4, align 8, !tbaa !46
  %38 = getelementptr inbounds nuw %struct.AVPacket, ptr %37, i32 0, i32 1
  %39 = load i64, ptr %38, align 8, !tbaa !52
  %40 = load ptr, ptr %6, align 8, !tbaa !49
  %41 = getelementptr inbounds nuw %struct.IVFEncContext, ptr %40, i32 0, i32 1
  store i64 %39, ptr %41, align 8, !tbaa !58
  call void @llvm.lifetime.end.p0(i64 8, ptr %6) #4
  call void @llvm.lifetime.end.p0(i64 8, ptr %5) #4
  ret i32 0
}