; Function Attrs: nounwind uwtable
define internal noundef i32 @ivf_write_packet(ptr noundef readonly captures(none) %0, ptr noundef readonly captures(none) %1) #0 {
  %3 = getelementptr inbounds nuw i8, ptr %0, i64 32
  %4 = load ptr, ptr %3, align 8, !tbaa !33
  %5 = getelementptr inbounds nuw i8, ptr %0, i64 24
  %6 = load ptr, ptr %5, align 8, !tbaa !41
  %7 = getelementptr inbounds nuw i8, ptr %1, i64 32
  %8 = load i32, ptr %7, align 8, !tbaa !42
  tail call void @avio_wl32(ptr noundef %4, i32 noundef %8) #2
  %9 = getelementptr inbounds nuw i8, ptr %1, i64 8
  %10 = load i64, ptr %9, align 8, !tbaa !43
  tail call void @avio_wl64(ptr noundef %4, i64 noundef %10) #2
  %11 = getelementptr inbounds nuw i8, ptr %1, i64 24
  %12 = load ptr, ptr %11, align 8, !tbaa !44
  %13 = load i32, ptr %7, align 8, !tbaa !42
  tail call void @avio_write(ptr noundef %4, ptr noundef %12, i32 noundef %13) #2
  %14 = getelementptr inbounds nuw i8, ptr %1, i64 64
  %15 = load i64, ptr %14, align 8, !tbaa !45
  %16 = getelementptr inbounds nuw i8, ptr %6, i64 16
  store i64 %15, ptr %16, align 8, !tbaa !46
  %17 = load i32, ptr %6, align 8, !tbaa !48
  %18 = add i32 %17, 1
  store i32 %18, ptr %6, align 8, !tbaa !48
  %19 = load i64, ptr %9, align 8, !tbaa !43
  %20 = getelementptr inbounds nuw i8, ptr %6, i64 8
  store i64 %19, ptr %20, align 8, !tbaa !49
  ret i32 0
}